target datalayout = "e-m:e-p270:32:32-p271:32:32-p272:64:64-i64:64-i128:128-f80:128-n8:16:32:64-S128"
target triple = "x86_64-pc-linux-gnu"

%struct.archive_read = type { %struct.archive, ptr, i32, i64, i64, %struct.archive_read_client, [16 x %struct.archive_read_filter_bidder], ptr, i32, i64, i32, i32, [16 x %struct.archive_format_descriptor], ptr, ptr, ptr, %struct.anon }
%struct.archive = type { i32, i32, ptr, i32, ptr, i32, i32, ptr, %struct.archive_string, ptr, i32, i32, ptr, ptr, i64, i64, i64, i8, i64 }
%struct.archive_string = type { ptr, i64, i64 }
%struct.archive_read_client = type { ptr, ptr, ptr, ptr, ptr, ptr, i32, i32, i64, ptr }
%struct.archive_read_filter_bidder = type { ptr, ptr, ptr }
%struct.archive_format_descriptor = type { ptr, ptr, ptr, ptr, ptr, ptr, ptr, ptr, ptr, ptr, ptr }
%struct.anon = type { ptr, ptr, i32, ptr, ptr }
%struct._7zip = type { %struct._7z_stream_info, i32, i32, i64, i64, i64, i64, i64, i64, ptr, ptr, ptr, i64, i64, i64, i8, ptr, ptr, i64, i64, i64, i32, i64, i32, i32, i64, i64, i64, i64, %struct.lzma_stream, i32, %struct.bz_stream, i32, %struct.z_stream_s, i32, ptr, i32, i32, %struct.CPpmd7, %struct.CPpmd7z_RangeDec, %struct.IByteIn, %struct.anon.0, i32, i32, i64, [4 x i8], i64, i32, i32, i64, [3 x ptr], [3 x i64], [3 x i64], ptr, i64, i64, i64, [258 x i16], i8, i32, i32, i64, ptr, [64 x i8], i32 }
%struct._7z_stream_info = type { %struct._7z_pack_info, %struct._7z_coders_info, %struct._7z_substream_info }
%struct._7z_pack_info = type { i64, i64, ptr, %struct._7z_digests, ptr }
%struct._7z_digests = type { ptr, ptr }
%struct._7z_coders_info = type { i64, ptr, i64 }
%struct._7z_substream_info = type { i64, ptr, ptr, ptr }
%struct.lzma_stream = type { ptr, i64, i64, ptr, i64, i64, ptr, ptr, ptr, ptr, ptr, ptr, i64, i64, i64, i64, i32, i32 }
%struct.bz_stream = type { ptr, i32, i32, i32, ptr, i32, i32, i32, ptr, ptr, ptr, ptr }
%struct.z_stream_s = type { ptr, i32, i64, ptr, i32, i64, ptr, ptr, ptr, ptr, ptr, i32, i64, i64 }
%struct.CPpmd7 = type { ptr, ptr, ptr, i32, i32, i32, i32, i32, i32, i32, i32, i32, ptr, ptr, ptr, ptr, ptr, i32, [38 x i8], [128 x i8], [38 x i32], [256 x i8], [256 x i8], [256 x i8], %struct.CPpmd_See, [25 x [16 x %struct.CPpmd_See]], [128 x [64 x i16]] }
%struct.CPpmd_See = type { i16, i8, i8 }
%struct.CPpmd7z_RangeDec = type { %struct.IPpmd7_RangeDec, i32, i32, i32, i32, ptr }
%struct.IPpmd7_RangeDec = type { ptr, ptr, ptr }
%struct.IByteIn = type { ptr, ptr }
%struct.anon.0 = type { ptr, i64, i64, i64, ptr, i64, i64, i32 }

@.str.18 = private unnamed_addr constant [22 x i8] c"Damaged 7-Zip archive\00", align 1
@.str.33 = private unnamed_addr constant [26 x i8] c"Truncated 7-Zip file data\00", align 1

; Function Attrs: nounwind uwtable
define internal i64 @get_uncompressed_data(ptr noundef %0, ptr noundef %1, i64 noundef %2, i64 noundef %3) #0 {
  %5 = alloca i64, align 8
  %6 = alloca ptr, align 8
  %7 = alloca ptr, align 8
  %8 = alloca i64, align 8
  %9 = alloca i64, align 8
  %10 = alloca ptr, align 8
  %11 = alloca i64, align 8
  %12 = alloca i32, align 4
  store ptr %0, ptr %6, align 8, !tbaa !9
  store ptr %1, ptr %7, align 8, !tbaa !103
  store i64 %2, ptr %8, align 8, !tbaa !45
  store i64 %3, ptr %9, align 8, !tbaa !45
  call void @llvm.lifetime.start.p0(i64 8, ptr %10) #12
  %13 = load ptr, ptr %6, align 8, !tbaa !9
  %14 = getelementptr inbounds nuw %struct.archive_read, ptr %13, i32 0, i32 13
  %15 = load ptr, ptr %14, align 8, !tbaa !51
  %16 = getelementptr inbounds nuw %struct.archive_format_descriptor, ptr %15, i32 0, i32 0
  %17 = load ptr, ptr %16, align 8, !tbaa !64
  store ptr %17, ptr %10, align 8, !tbaa !13
  call void @llvm.lifetime.start.p0(i64 8, ptr %11) #12
  %18 = load ptr, ptr %10, align 8, !tbaa !13
  %19 = getelementptr inbounds nuw %struct._7zip, ptr %18, i32 0, i32 27
  %20 = load i64, ptr %19, align 8, !tbaa !176
  %21 = icmp eq i64 %20, 0
  br i1 %21, label %22, label %58

22:                                               ; preds = %4
  %23 = load ptr, ptr %10, align 8, !tbaa !13
  %24 = getelementptr inbounds nuw %struct._7zip, ptr %23, i32 0, i32 28
  %25 = load i64, ptr %24, align 8, !tbaa !177
  %26 = icmp eq i64 %25, -1
  br i1 %26, label %27, label %58

27:                                               ; preds = %22
  %28 = load ptr, ptr %6, align 8, !tbaa !9
  %29 = load i64, ptr %9, align 8, !tbaa !45
  %30 = call ptr @__archive_read_ahead(ptr noundef %28, i64 noundef %29, ptr noundef %11)
  %31 = load ptr, ptr %7, align 8, !tbaa !103
  store ptr %30, ptr %31, align 8, !tbaa !103
  %32 = load ptr, ptr %7, align 8, !tbaa !103
  %33 = load ptr, ptr %32, align 8, !tbaa !103
  %34 = icmp eq ptr %33, null
  br i1 %34, label %35, label %38

35:                                               ; preds = %27
  %36 = load ptr, ptr %6, align 8, !tbaa !9
  %37 = getelementptr inbounds nuw %struct.archive_read, ptr %36, i32 0, i32 0
  call void (ptr, i32, ptr, ...) @archive_set_error(ptr noundef %37, i32 noundef 84, ptr noundef @.str.33)
  store i64 -30, ptr %5, align 8
  store i32 1, ptr %12, align 4
  br label %109

38:                                               ; preds = %27
  %39 = load i64, ptr %11, align 8, !tbaa !45
  %40 = load ptr, ptr %10, align 8, !tbaa !13
  %41 = getelementptr inbounds nuw %struct._7zip, ptr %40, i32 0, i32 19
  %42 = load i64, ptr %41, align 8, !tbaa !126
  %43 = icmp ugt i64 %39, %42
  br i1 %43, label %44, label %48

44:                                               ; preds = %38
  %45 = load ptr, ptr %10, align 8, !tbaa !13
  %46 = getelementptr inbounds nuw %struct._7zip, ptr %45, i32 0, i32 19
  %47 = load i64, ptr %46, align 8, !tbaa !126
  store i64 %47, ptr %11, align 8, !tbaa !45
  br label %48

48:                                               ; preds = %44, %38
  %49 = load i64, ptr %11, align 8, !tbaa !45
  %50 = load i64, ptr %8, align 8, !tbaa !45
  %51 = icmp ugt i64 %49, %50
  br i1 %51, label %52, label %54

52:                                               ; preds = %48
  %53 = load i64, ptr %8, align 8, !tbaa !45
  store i64 %53, ptr %11, align 8, !tbaa !45
  br label %54

54:                                               ; preds = %52, %48
  %55 = load i64, ptr %11, align 8, !tbaa !45
  %56 = load ptr, ptr %10, align 8, !tbaa !13
  %57 = getelementptr inbounds nuw %struct._7zip, ptr %56, i32 0, i32 26
  store i64 %55, ptr %57, align 8, !tbaa !107
  br label %102

58:                                               ; preds = %22, %4
  %59 = load ptr, ptr %10, align 8, !tbaa !13
  %60 = getelementptr inbounds nuw %struct._7zip, ptr %59, i32 0, i32 17
  %61 = load ptr, ptr %60, align 8, !tbaa !179
  %62 = icmp eq ptr %61, null
  br i1 %62, label %63, label %66

63:                                               ; preds = %58
  %64 = load ptr, ptr %6, align 8, !tbaa !9
  %65 = getelementptr inbounds nuw %struct.archive_read, ptr %64, i32 0, i32 0
  call void (ptr, i32, ptr, ...) @archive_set_error(ptr noundef %65, i32 noundef -1, ptr noundef @.str.18)
  store i64 -30, ptr %5, align 8
  store i32 1, ptr %12, align 4
  br label %109

66:                                               ; preds = %58
  %67 = load i64, ptr %9, align 8, !tbaa !45
  %68 = load ptr, ptr %10, align 8, !tbaa !13
  %69 = getelementptr inbounds nuw %struct._7zip, ptr %68, i32 0, i32 19
  %70 = load i64, ptr %69, align 8, !tbaa !126
  %71 = icmp ugt i64 %67, %70
  br i1 %71, label %72, label %79

72:                                               ; preds = %66
  %73 = load ptr, ptr %6, align 8, !tbaa !9
  %74 = load i64, ptr %9, align 8, !tbaa !45
  %75 = call i64 @extract_pack_stream(ptr noundef %73, i64 noundef %74)
  %76 = icmp slt i64 %75, 0
  br i1 %76, label %77, label %78

77:                                               ; preds = %72
  store i64 -30, ptr %5, align 8
  store i32 1, ptr %12, align 4
  br label %109

78:                                               ; preds = %72
  br label %79

79:                                               ; preds = %78, %66
  %80 = load i64, ptr %8, align 8, !tbaa !45
  %81 = load ptr, ptr %10, align 8, !tbaa !13
  %82 = getelementptr inbounds nuw %struct._7zip, ptr %81, i32 0, i32 19
  %83 = load i64, ptr %82, align 8, !tbaa !126
  %84 = icmp ugt i64 %80, %83
  br i1 %84, label %85, label %89

85:                                               ; preds = %79
  %86 = load ptr, ptr %10, align 8, !tbaa !13
  %87 = getelementptr inbounds nuw %struct._7zip, ptr %86, i32 0, i32 19
  %88 = load i64, ptr %87, align 8, !tbaa !126
  store i64 %88, ptr %11, align 8, !tbaa !45
  br label %91

89:                                               ; preds = %79
  %90 = load i64, ptr %8, align 8, !tbaa !45
  store i64 %90, ptr %11, align 8, !tbaa !45
  br label %91

91:                                               ; preds = %89, %85
  %92 = load ptr, ptr %10, align 8, !tbaa !13
  %93 = getelementptr inbounds nuw %struct._7zip, ptr %92, i32 0, i32 17
  %94 = load ptr, ptr %93, align 8, !tbaa !179
  %95 = load ptr, ptr %7, align 8, !tbaa !103
  store ptr %94, ptr %95, align 8, !tbaa !103
  %96 = load i64, ptr %11, align 8, !tbaa !45
  %97 = load ptr, ptr %10, align 8, !tbaa !13
  %98 = getelementptr inbounds nuw %struct._7zip, ptr %97, i32 0, i32 17
  %99 = load ptr, ptr %98, align 8, !tbaa !179
  %100 = getelementptr inbounds i8, ptr %99, i64 %96
  store ptr %100, ptr %98, align 8, !tbaa !179
  br label %101

101:                                              ; preds = %91
  br label %102

102:                                              ; preds = %101, %54
  %103 = load i64, ptr %11, align 8, !tbaa !45
  %104 = load ptr, ptr %10, align 8, !tbaa !13
  %105 = getelementptr inbounds nuw %struct._7zip, ptr %104, i32 0, i32 19
  %106 = load i64, ptr %105, align 8, !tbaa !126
  %107 = sub i64 %106, %103
  store i64 %107, ptr %105, align 8, !tbaa !126
  %108 = load i64, ptr %11, align 8, !tbaa !45
  store i64 %108, ptr %5, align 8
  store i32 1, ptr %12, align 4
  br label %109

109:                                              ; preds = %102, %77, %63, %35
  call void @llvm.lifetime.end.p0(i64 8, ptr %11) #12
  call void @llvm.lifetime.end.p0(i64 8, ptr %10) #12
  %110 = load i64, ptr %5, align 8
  ret i64 %110
}