; Function Attrs: nounwind uwtable
define internal fastcc i64 @get_uncompressed_data(ptr noundef %0, ptr noundef writeonly captures(none) %1, i64 noundef %2, i64 noundef %3) unnamed_addr #0 {
  %5 = alloca i64, align 8
  %6 = getelementptr inbounds nuw i8, ptr %0, i64 2072
  %7 = load ptr, ptr %6, align 8, !tbaa !41
  %8 = load ptr, ptr %7, align 8, !tbaa !55
  call void @llvm.lifetime.start.p0(i64 8, ptr nonnull %5) #17
  %9 = getelementptr inbounds nuw i8, ptr %8, i64 296
  %10 = load i64, ptr %9, align 8, !tbaa !184
  %11 = icmp eq i64 %10, 0
  br i1 %11, label %12, label %26

12:                                               ; preds = %4
  %13 = getelementptr inbounds nuw i8, ptr %8, i64 304
  %14 = load i64, ptr %13, align 8, !tbaa !185
  %15 = icmp eq i64 %14, -1
  br i1 %15, label %16, label %26

16:                                               ; preds = %12
  %17 = call ptr @__archive_read_ahead(ptr noundef nonnull %0, i64 noundef %3, ptr noundef nonnull %5) #17
  store ptr %17, ptr %1, align 8, !tbaa !111
  %18 = icmp eq ptr %17, null
  br i1 %18, label %19, label %20

19:                                               ; preds = %16
  call void (ptr, i32, ptr, ...) @archive_set_error(ptr noundef nonnull %0, i32 noundef 84, ptr noundef nonnull @.str.33) #17
  br label %48

20:                                               ; preds = %16
  %21 = load i64, ptr %5, align 8, !tbaa !38
  %22 = getelementptr inbounds nuw i8, ptr %8, i64 240
  %23 = load i64, ptr %22, align 8, !tbaa !77
  %spec.select = call i64 @llvm.umin.i64(i64 %21, i64 %23)
  %24 = call i64 @llvm.umin.i64(i64 %spec.select, i64 %2)
  %25 = getelementptr inbounds nuw i8, ptr %8, i64 288
  store i64 %24, ptr %25, align 8, !tbaa !74
  br label %43

26:                                               ; preds = %12, %4
  %27 = getelementptr inbounds nuw i8, ptr %8, i64 224
  %28 = load ptr, ptr %27, align 8, !tbaa !187
  %29 = icmp eq ptr %28, null
  br i1 %29, label %30, label %31

30:                                               ; preds = %26
  tail call void (ptr, i32, ptr, ...) @archive_set_error(ptr noundef nonnull %0, i32 noundef -1, ptr noundef nonnull @.str.18) #17
  br label %48

31:                                               ; preds = %26
  %32 = getelementptr inbounds nuw i8, ptr %8, i64 240
  %33 = load i64, ptr %32, align 8, !tbaa !77
  %34 = icmp ugt i64 %3, %33
  br i1 %34, label %35, label %38

35:                                               ; preds = %31
  %36 = tail call fastcc i64 @extract_pack_stream(ptr noundef nonnull %0, i64 noundef %3)
  %37 = icmp slt i64 %36, 0
  br i1 %37, label %48, label %._crit_edge

._crit_edge:                                      ; preds = %35
  %.pre = load i64, ptr %32, align 8, !tbaa !77
  %.pre31 = load ptr, ptr %27, align 8, !tbaa !187
  br label %38

38:                                               ; preds = %._crit_edge, %31
  %39 = phi ptr [ %.pre31, %._crit_edge ], [ %28, %31 ]
  %40 = phi i64 [ %.pre, %._crit_edge ], [ %33, %31 ]
  %. = tail call i64 @llvm.umin.i64(i64 %2, i64 %40)
  store ptr %39, ptr %1, align 8, !tbaa !111
  %41 = load ptr, ptr %27, align 8, !tbaa !187
  %42 = getelementptr inbounds i8, ptr %41, i64 %.
  store ptr %42, ptr %27, align 8, !tbaa !187
  br label %43

43:                                               ; preds = %38, %20
  %44 = phi i64 [ %40, %38 ], [ %23, %20 ]
  %45 = phi i64 [ %., %38 ], [ %24, %20 ]
  %46 = getelementptr inbounds nuw i8, ptr %8, i64 240
  %47 = sub i64 %44, %45
  store i64 %47, ptr %46, align 8, !tbaa !77
  br label %48

48:                                               ; preds = %35, %43, %30, %19
  %.0 = phi i64 [ -30, %19 ], [ %45, %43 ], [ -30, %30 ], [ -30, %35 ]
  call void @llvm.lifetime.end.p0(i64 8, ptr nonnull %5) #17
  ret i64 %.0
}